target datalayout = "e-m:e-p270:32:32-p271:32:32-p272:64:64-i64:64-i128:128-f80:128-n8:16:32:64-S128"
target triple = "x86_64-pc-linux-gnu"

%"struct.OpenImageIO::v3_1_0::xxhash::_U32_S" = type { i32 }

@_ZN11OpenImageIO6v3_1_06xxhashL3oneE = internal constant i32 1, align 4

; Function Attrs: inlinehint mustprogress nounwind uwtable
define internal noundef i32 @_ZN11OpenImageIO6v3_1_06xxhashL10XXH_swap32Ej(i32 noundef %0) #7 {
  %2 = alloca i32, align 4
  store i32 %0, ptr %2, align 4, !tbaa !9
  %3 = load i32, ptr %2, align 4, !tbaa !9
  %4 = shl i32 %3, 24
  %5 = and i32 %4, -16777216
  %6 = load i32, ptr %2, align 4, !tbaa !9
  %7 = shl i32 %6, 8
  %8 = and i32 %7, 16711680
  %9 = or i32 %5, %8
  %10 = load i32, ptr %2, align 4, !tbaa !9
  %11 = lshr i32 %10, 8
  %12 = and i32 %11, 65280
  %13 = or i32 %9, %12
  %14 = load i32, ptr %2, align 4, !tbaa !9
  %15 = lshr i32 %14, 24
  %16 = and i32 %15, 255
  %17 = or i32 %13, %16
  ret i32 %17
}

; Function Attrs: alwaysinline mustprogress uwtable
define internal noundef i32 @_ZN11OpenImageIO6v3_1_06xxhashL18XXH_readLE32_alignEPKvNS1_13XXH_endianessENS1_13XXH_alignmentE(ptr noundef %0, i32 noundef %1, i32 noundef %2) #6 {
  %4 = alloca i32, align 4
  %5 = alloca ptr, align 8
  %6 = alloca i32, align 4
  %7 = alloca i32, align 4
  store ptr %0, ptr %5, align 8, !tbaa !3
  store i32 %1, ptr %6, align 4, !tbaa !12
  store i32 %2, ptr %7, align 4, !tbaa !14
  %8 = load i32, ptr %7, align 4, !tbaa !14
  %9 = icmp eq i32 %8, 1
  br i1 %9, label %10, label %24

10:                                               ; preds = %3
  %11 = load i32, ptr %6, align 4, !tbaa !12
  %12 = icmp eq i32 %11, 1
  br i1 %12, label %13, label %17

13:                                               ; preds = %10
  %14 = load ptr, ptr %5, align 8, !tbaa !3
  %15 = getelementptr inbounds nuw %"struct.OpenImageIO::v3_1_0::xxhash::_U32_S", ptr %14, i32 0, i32 0
  %16 = load i32, ptr %15, align 4, !tbaa !27
  br label %22

17:                                               ; preds = %10
  %18 = load ptr, ptr %5, align 8, !tbaa !3
  %19 = getelementptr inbounds nuw %"struct.OpenImageIO::v3_1_0::xxhash::_U32_S", ptr %18, i32 0, i32 0
  %20 = load i32, ptr %19, align 4, !tbaa !27
  %21 = call noundef i32 @_ZN11OpenImageIO6v3_1_06xxhashL10XXH_swap32Ej(i32 noundef %20)
  br label %22

22:                                               ; preds = %17, %13
  %23 = phi i32 [ %16, %13 ], [ %21, %17 ]
  store i32 %23, ptr %4, align 4
  br label %36

24:                                               ; preds = %3
  %25 = load i32, ptr %6, align 4, !tbaa !12
  %26 = icmp eq i32 %25, 1
  br i1 %26, label %27, label %30

27:                                               ; preds = %24
  %28 = load ptr, ptr %5, align 8, !tbaa !3
  %29 = load i32, ptr %28, align 4, !tbaa !9
  br label %34

30:                                               ; preds = %24
  %31 = load ptr, ptr %5, align 8, !tbaa !3
  %32 = load i32, ptr %31, align 4, !tbaa !9
  %33 = call noundef i32 @_ZN11OpenImageIO6v3_1_06xxhashL10XXH_swap32Ej(i32 noundef %32)
  br label %34

34:                                               ; preds = %30, %27
  %35 = phi i32 [ %29, %27 ], [ %33, %30 ]
  store i32 %35, ptr %4, align 4
  br label %36

36:                                               ; preds = %34, %22
  %37 = load i32, ptr %4, align 4
  ret i32 %37
}

; Function Attrs: alwaysinline mustprogress uwtable
define internal noundef i32 @_ZN11OpenImageIO6v3_1_06xxhashL18XXH32_endian_alignEPKvmjNS1_13XXH_endianessENS1_13XXH_alignmentE(ptr noundef %0, i64 noundef %1, i32 noundef %2, i32 noundef %3, i32 noundef %4) #6 {
  %6 = alloca ptr, align 8
  %7 = alloca i64, align 8
  %8 = alloca i32, align 4
  %9 = alloca i32, align 4
  %10 = alloca i32, align 4
  %11 = alloca ptr, align 8
  %12 = alloca ptr, align 8
  %13 = alloca i32, align 4
  %14 = alloca ptr, align 8
  %15 = alloca i32, align 4
  %16 = alloca i32, align 4
  %17 = alloca i32, align 4
  %18 = alloca i32, align 4
  store ptr %0, ptr %6, align 8, !tbaa !3
  store i64 %1, ptr %7, align 8, !tbaa !7
  store i32 %2, ptr %8, align 4, !tbaa !9
  store i32 %3, ptr %9, align 4, !tbaa !12
  store i32 %4, ptr %10, align 4, !tbaa !14
  call void @llvm.lifetime.start.p0(i64 8, ptr %11) #3
  %19 = load ptr, ptr %6, align 8, !tbaa !3
  store ptr %19, ptr %11, align 8, !tbaa !16
  call void @llvm.lifetime.start.p0(i64 8, ptr %12) #3
  %20 = load ptr, ptr %11, align 8, !tbaa !16
  %21 = load i64, ptr %7, align 8, !tbaa !7
  %22 = getelementptr inbounds nuw i8, ptr %20, i64 %21
  store ptr %22, ptr %12, align 8, !tbaa !16
  call void @llvm.lifetime.start.p0(i64 4, ptr %13) #3
  %23 = load i64, ptr %7, align 8, !tbaa !7
  %24 = icmp uge i64 %23, 16
  br i1 %24, label %25, label %130

25:                                               ; preds = %5
  call void @llvm.lifetime.start.p0(i64 8, ptr %14) #3
  %26 = load ptr, ptr %12, align 8, !tbaa !16
  %27 = getelementptr inbounds i8, ptr %26, i64 -16
  store ptr %27, ptr %14, align 8, !tbaa !16
  call void @llvm.lifetime.start.p0(i64 4, ptr %15) #3
  %28 = load i32, ptr %8, align 4, !tbaa !9
  %29 = add i32 %28, -1640531535
  %30 = add i32 %29, -2048144777
  store i32 %30, ptr %15, align 4, !tbaa !9
  call void @llvm.lifetime.start.p0(i64 4, ptr %16) #3
  %31 = load i32, ptr %8, align 4, !tbaa !9
  %32 = add i32 %31, -2048144777
  store i32 %32, ptr %16, align 4, !tbaa !9
  call void @llvm.lifetime.start.p0(i64 4, ptr %17) #3
  %33 = load i32, ptr %8, align 4, !tbaa !9
  %34 = add i32 %33, 0
  store i32 %34, ptr %17, align 4, !tbaa !9
  call void @llvm.lifetime.start.p0(i64 4, ptr %18) #3
  %35 = load i32, ptr %8, align 4, !tbaa !9
  %36 = sub i32 %35, -1640531535
  store i32 %36, ptr %18, align 4, !tbaa !9
  br label %37

37:                                               ; preds = %102, %25
  %38 = load ptr, ptr %11, align 8, !tbaa !16
  %39 = load i32, ptr %9, align 4, !tbaa !12
  %40 = load i32, ptr %10, align 4, !tbaa !14
  %41 = call noundef i32 @_ZN11OpenImageIO6v3_1_06xxhashL18XXH_readLE32_alignEPKvNS1_13XXH_endianessENS1_13XXH_alignmentE(ptr noundef %38, i32 noundef %39, i32 noundef %40)
  %42 = mul i32 %41, -2048144777
  %43 = load i32, ptr %15, align 4, !tbaa !9
  %44 = add i32 %43, %42
  store i32 %44, ptr %15, align 4, !tbaa !9
  %45 = load i32, ptr %15, align 4, !tbaa !9
  %46 = shl i32 %45, 13
  %47 = load i32, ptr %15, align 4, !tbaa !9
  %48 = lshr i32 %47, 19
  %49 = or i32 %46, %48
  store i32 %49, ptr %15, align 4, !tbaa !9
  %50 = load i32, ptr %15, align 4, !tbaa !9
  %51 = mul i32 %50, -1640531535
  store i32 %51, ptr %15, align 4, !tbaa !9
  %52 = load ptr, ptr %11, align 8, !tbaa !16
  %53 = getelementptr inbounds i8, ptr %52, i64 4
  store ptr %53, ptr %11, align 8, !tbaa !16
  %54 = load ptr, ptr %11, align 8, !tbaa !16
  %55 = load i32, ptr %9, align 4, !tbaa !12
  %56 = load i32, ptr %10, align 4, !tbaa !14
  %57 = call noundef i32 @_ZN11OpenImageIO6v3_1_06xxhashL18XXH_readLE32_alignEPKvNS1_13XXH_endianessENS1_13XXH_alignmentE(ptr noundef %54, i32 noundef %55, i32 noundef %56)
  %58 = mul i32 %57, -2048144777
  %59 = load i32, ptr %16, align 4, !tbaa !9
  %60 = add i32 %59, %58
  store i32 %60, ptr %16, align 4, !tbaa !9
  %61 = load i32, ptr %16, align 4, !tbaa !9
  %62 = shl i32 %61, 13
  %63 = load i32, ptr %16, align 4, !tbaa !9
  %64 = lshr i32 %63, 19
  %65 = or i32 %62, %64
  store i32 %65, ptr %16, align 4, !tbaa !9
  %66 = load i32, ptr %16, align 4, !tbaa !9
  %67 = mul i32 %66, -1640531535
  store i32 %67, ptr %16, align 4, !tbaa !9
  %68 = load ptr, ptr %11, align 8, !tbaa !16
  %69 = getelementptr inbounds i8, ptr %68, i64 4
  store ptr %69, ptr %11, align 8, !tbaa !16
  %70 = load ptr, ptr %11, align 8, !tbaa !16
  %71 = load i32, ptr %9, align 4, !tbaa !12
  %72 = load i32, ptr %10, align 4, !tbaa !14
  %73 = call noundef i32 @_ZN11OpenImageIO6v3_1_06xxhashL18XXH_readLE32_alignEPKvNS1_13XXH_endianessENS1_13XXH_alignmentE(ptr noundef %70, i32 noundef %71, i32 noundef %72)
  %74 = mul i32 %73, -2048144777
  %75 = load i32, ptr %17, align 4, !tbaa !9
  %76 = add i32 %75, %74
  store i32 %76, ptr %17, align 4, !tbaa !9
  %77 = load i32, ptr %17, align 4, !tbaa !9
  %78 = shl i32 %77, 13
  %79 = load i32, ptr %17, align 4, !tbaa !9
  %80 = lshr i32 %79, 19
  %81 = or i32 %78, %80
  store i32 %81, ptr %17, align 4, !tbaa !9
  %82 = load i32, ptr %17, align 4, !tbaa !9
  %83 = mul i32 %82, -1640531535
  store i32 %83, ptr %17, align 4, !tbaa !9
  %84 = load ptr, ptr %11, align 8, !tbaa !16
  %85 = getelementptr inbounds i8, ptr %84, i64 4
  store ptr %85, ptr %11, align 8, !tbaa !16
  %86 = load ptr, ptr %11, align 8, !tbaa !16
  %87 = load i32, ptr %9, align 4, !tbaa !12
  %88 = load i32, ptr %10, align 4, !tbaa !14
  %89 = call noundef i32 @_ZN11OpenImageIO6v3_1_06xxhashL18XXH_readLE32_alignEPKvNS1_13XXH_endianessENS1_13XXH_alignmentE(ptr noundef %86, i32 noundef %87, i32 noundef %88)
  %90 = mul i32 %89, -2048144777
  %91 = load i32, ptr %18, align 4, !tbaa !9
  %92 = add i32 %91, %90
  store i32 %92, ptr %18, align 4, !tbaa !9
  %93 = load i32, ptr %18, align 4, !tbaa !9
  %94 = shl i32 %93, 13
  %95 = load i32, ptr %18, align 4, !tbaa !9
  %96 = lshr i32 %95, 19
  %97 = or i32 %94, %96
  store i32 %97, ptr %18, align 4, !tbaa !9
  %98 = load i32, ptr %18, align 4, !tbaa !9
  %99 = mul i32 %98, -1640531535
  store i32 %99, ptr %18, align 4, !tbaa !9
  %100 = load ptr, ptr %11, align 8, !tbaa !16
  %101 = getelementptr inbounds i8, ptr %100, i64 4
  store ptr %101, ptr %11, align 8, !tbaa !16
  br label %102

102:                                              ; preds = %37
  %103 = load ptr, ptr %11, align 8, !tbaa !16
  %104 = load ptr, ptr %14, align 8, !tbaa !16
  %105 = icmp ule ptr %103, %104
  br i1 %105, label %37, label %106, !llvm.loop !18

106:                                              ; preds = %102
  %107 = load i32, ptr %15, align 4, !tbaa !9
  %108 = shl i32 %107, 1
  %109 = load i32, ptr %15, align 4, !tbaa !9
  %110 = lshr i32 %109, 31
  %111 = or i32 %108, %110
  %112 = load i32, ptr %16, align 4, !tbaa !9
  %113 = shl i32 %112, 7
  %114 = load i32, ptr %16, align 4, !tbaa !9
  %115 = lshr i32 %114, 25
  %116 = or i32 %113, %115
  %117 = add i32 %111, %116
  %118 = load i32, ptr %17, align 4, !tbaa !9
  %119 = shl i32 %118, 12
  %120 = load i32, ptr %17, align 4, !tbaa !9
  %121 = lshr i32 %120, 20
  %122 = or i32 %119, %121
  %123 = add i32 %117, %122
  %124 = load i32, ptr %18, align 4, !tbaa !9
  %125 = shl i32 %124, 18
  %126 = load i32, ptr %18, align 4, !tbaa !9
  %127 = lshr i32 %126, 14
  %128 = or i32 %125, %127
  %129 = add i32 %123, %128
  store i32 %129, ptr %13, align 4, !tbaa !9
  call void @llvm.lifetime.end.p0(i64 4, ptr %18) #3
  call void @llvm.lifetime.end.p0(i64 4, ptr %17) #3
  call void @llvm.lifetime.end.p0(i64 4, ptr %16) #3
  call void @llvm.lifetime.end.p0(i64 4, ptr %15) #3
  call void @llvm.lifetime.end.p0(i64 8, ptr %14) #3
  br label %133

130:                                              ; preds = %5
  %131 = load i32, ptr %8, align 4, !tbaa !9
  %132 = add i32 %131, 374761393
  store i32 %132, ptr %13, align 4, !tbaa !9
  br label %133

133:                                              ; preds = %130, %106
  %134 = load i64, ptr %7, align 8, !tbaa !7
  %135 = trunc i64 %134 to i32
  %136 = load i32, ptr %13, align 4, !tbaa !9
  %137 = add i32 %136, %135
  store i32 %137, ptr %13, align 4, !tbaa !9
  br label %138

138:                                              ; preds = %143, %133
  %139 = load ptr, ptr %11, align 8, !tbaa !16
  %140 = getelementptr inbounds i8, ptr %139, i64 4
  %141 = load ptr, ptr %12, align 8, !tbaa !16
  %142 = icmp ule ptr %140, %141
  br i1 %142, label %143, label %159

143:                                              ; preds = %138
  %144 = load ptr, ptr %11, align 8, !tbaa !16
  %145 = load i32, ptr %9, align 4, !tbaa !12
  %146 = load i32, ptr %10, align 4, !tbaa !14
  %147 = call noundef i32 @_ZN11OpenImageIO6v3_1_06xxhashL18XXH_readLE32_alignEPKvNS1_13XXH_endianessENS1_13XXH_alignmentE(ptr noundef %144, i32 noundef %145, i32 noundef %146)
  %148 = mul i32 %147, -1028477379
  %149 = load i32, ptr %13, align 4, !tbaa !9
  %150 = add i32 %149, %148
  store i32 %150, ptr %13, align 4, !tbaa !9
  %151 = load i32, ptr %13, align 4, !tbaa !9
  %152 = shl i32 %151, 17
  %153 = load i32, ptr %13, align 4, !tbaa !9
  %154 = lshr i32 %153, 15
  %155 = or i32 %152, %154
  %156 = mul i32 %155, 668265263
  store i32 %156, ptr %13, align 4, !tbaa !9
  %157 = load ptr, ptr %11, align 8, !tbaa !16
  %158 = getelementptr inbounds i8, ptr %157, i64 4
  store ptr %158, ptr %11, align 8, !tbaa !16
  br label %138, !llvm.loop !20

159:                                              ; preds = %138
  br label %160

160:                                              ; preds = %164, %159
  %161 = load ptr, ptr %11, align 8, !tbaa !16
  %162 = load ptr, ptr %12, align 8, !tbaa !16
  %163 = icmp ult ptr %161, %162
  br i1 %163, label %164, label %179

164:                                              ; preds = %160
  %165 = load ptr, ptr %11, align 8, !tbaa !16
  %166 = load i8, ptr %165, align 1, !tbaa !11
  %167 = zext i8 %166 to i32
  %168 = mul i32 %167, 374761393
  %169 = load i32, ptr %13, align 4, !tbaa !9
  %170 = add i32 %169, %168
  store i32 %170, ptr %13, align 4, !tbaa !9
  %171 = load i32, ptr %13, align 4, !tbaa !9
  %172 = shl i32 %171, 11
  %173 = load i32, ptr %13, align 4, !tbaa !9
  %174 = lshr i32 %173, 21
  %175 = or i32 %172, %174
  %176 = mul i32 %175, -1640531535
  store i32 %176, ptr %13, align 4, !tbaa !9
  %177 = load ptr, ptr %11, align 8, !tbaa !16
  %178 = getelementptr inbounds nuw i8, ptr %177, i32 1
  store ptr %178, ptr %11, align 8, !tbaa !16
  br label %160, !llvm.loop !21

179:                                              ; preds = %160
  %180 = load i32, ptr %13, align 4, !tbaa !9
  %181 = lshr i32 %180, 15
  %182 = load i32, ptr %13, align 4, !tbaa !9
  %183 = xor i32 %182, %181
  store i32 %183, ptr %13, align 4, !tbaa !9
  %184 = load i32, ptr %13, align 4, !tbaa !9
  %185 = mul i32 %184, -2048144777
  store i32 %185, ptr %13, align 4, !tbaa !9
  %186 = load i32, ptr %13, align 4, !tbaa !9
  %187 = lshr i32 %186, 13
  %188 = load i32, ptr %13, align 4, !tbaa !9
  %189 = xor i32 %188, %187
  store i32 %189, ptr %13, align 4, !tbaa !9
  %190 = load i32, ptr %13, align 4, !tbaa !9
  %191 = mul i32 %190, -1028477379
  store i32 %191, ptr %13, align 4, !tbaa !9
  %192 = load i32, ptr %13, align 4, !tbaa !9
  %193 = lshr i32 %192, 16
  %194 = load i32, ptr %13, align 4, !tbaa !9
  %195 = xor i32 %194, %193
  store i32 %195, ptr %13, align 4, !tbaa !9
  %196 = load i32, ptr %13, align 4, !tbaa !9
  call void @llvm.lifetime.end.p0(i64 4, ptr %13) #3
  call void @llvm.lifetime.end.p0(i64 8, ptr %12) #3
  call void @llvm.lifetime.end.p0(i64 8, ptr %11) #3
  ret i32 %196
}

; Function Attrs: mustprogress uwtable
define noundef i32 @_ZN11OpenImageIO6v3_1_06xxhash5XXH32EPKvmj(ptr noundef %0, i64 noundef %1, i32 noundef %2) #4 {
  %4 = alloca i32, align 4
  %5 = alloca ptr, align 8
  %6 = alloca i64, align 8
  %7 = alloca i32, align 4
  %8 = alloca i32, align 4
  %9 = alloca i32, align 4
  store ptr %0, ptr %5, align 8, !tbaa !3
  store i64 %1, ptr %6, align 8, !tbaa !7
  store i32 %2, ptr %7, align 4, !tbaa !9
  call void @llvm.lifetime.start.p0(i64 4, ptr %8) #3
  %10 = load i8, ptr @_ZN11OpenImageIO6v3_1_06xxhashL3oneE, align 4, !tbaa !11
  %11 = sext i8 %10 to i32
  store i32 %11, ptr %8, align 4, !tbaa !12
  %12 = load i32, ptr %8, align 4, !tbaa !12
  %13 = icmp eq i32 %12, 1
  br i1 %13, label %14, label %19

14:                                               ; preds = %3
  %15 = load ptr, ptr %5, align 8, !tbaa !3
  %16 = load i64, ptr %6, align 8, !tbaa !7
  %17 = load i32, ptr %7, align 4, !tbaa !9
  %18 = call noundef i32 @_ZN11OpenImageIO6v3_1_06xxhashL18XXH32_endian_alignEPKvmjNS1_13XXH_endianessENS1_13XXH_alignmentE(ptr noundef %15, i64 noundef %16, i32 noundef %17, i32 noundef 1, i32 noundef 1)
  store i32 %18, ptr %4, align 4
  store i32 1, ptr %9, align 4
  br label %24

19:                                               ; preds = %3
  %20 = load ptr, ptr %5, align 8, !tbaa !3
  %21 = load i64, ptr %6, align 8, !tbaa !7
  %22 = load i32, ptr %7, align 4, !tbaa !9
  %23 = call noundef i32 @_ZN11OpenImageIO6v3_1_06xxhashL18XXH32_endian_alignEPKvmjNS1_13XXH_endianessENS1_13XXH_alignmentE(ptr noundef %20, i64 noundef %21, i32 noundef %22, i32 noundef 0, i32 noundef 1)
  store i32 %23, ptr %4, align 4
  store i32 1, ptr %9, align 4
  br label %24

24:                                               ; preds = %19, %14
  call void @llvm.lifetime.end.p0(i64 4, ptr %8) #3
  %25 = load i32, ptr %4, align 4
  ret i32 %25
}