; Function Attrs: mustprogress nofree norecurse nosync nounwind willreturn memory(argmem: read) uwtable
define noundef i32 @_ZN11OpenImageIO6v3_1_06xxhash5XXH32EPKvmj(ptr noundef readonly %0, i64 noundef %1, i32 noundef %2) local_unnamed_addr #3 {
  %4 = getelementptr inbounds nuw i8, ptr %0, i64 %1
  %5 = icmp ugt i64 %1, 15
  br i1 %5, label %6, label %52

6:                                                ; preds = %3
  %7 = getelementptr inbounds i8, ptr %4, i64 -16
  %8 = add i32 %2, 606290984
  %9 = add i32 %2, -2048144777
  %10 = add i32 %2, 1640531535
  br label %11

11:                                               ; preds = %11, %6
  %.081.i = phi ptr [ %0, %6 ], [ %35, %11 ]
  %.080.i = phi i32 [ %8, %6 ], [ %16, %11 ]
  %.079.i = phi i32 [ %9, %6 ], [ %22, %11 ]
  %.078.i = phi i32 [ %2, %6 ], [ %28, %11 ]
  %.0.i = phi i32 [ %10, %6 ], [ %34, %11 ]
  %12 = load i32, ptr %.081.i, align 4, !tbaa !3
  %13 = mul i32 %12, -2048144777
  %14 = add i32 %13, %.080.i
  %15 = tail call i32 @llvm.fshl.i32(i32 %14, i32 %14, i32 13)
  %16 = mul i32 %15, -1640531535
  %17 = getelementptr inbounds nuw i8, ptr %.081.i, i64 4
  %18 = load i32, ptr %17, align 4, !tbaa !3
  %19 = mul i32 %18, -2048144777
  %20 = add i32 %19, %.079.i
  %21 = tail call i32 @llvm.fshl.i32(i32 %20, i32 %20, i32 13)
  %22 = mul i32 %21, -1640531535
  %23 = getelementptr inbounds nuw i8, ptr %.081.i, i64 8
  %24 = load i32, ptr %23, align 4, !tbaa !3
  %25 = mul i32 %24, -2048144777
  %26 = add i32 %25, %.078.i
  %27 = tail call i32 @llvm.fshl.i32(i32 %26, i32 %26, i32 13)
  %28 = mul i32 %27, -1640531535
  %29 = getelementptr inbounds nuw i8, ptr %.081.i, i64 12
  %30 = load i32, ptr %29, align 4, !tbaa !3
  %31 = mul i32 %30, -2048144777
  %32 = add i32 %31, %.0.i
  %33 = tail call i32 @llvm.fshl.i32(i32 %32, i32 %32, i32 13)
  %34 = mul i32 %33, -1640531535
  %35 = getelementptr inbounds nuw i8, ptr %.081.i, i64 16
  %.not.i = icmp ugt ptr %35, %7
  br i1 %.not.i, label %36, label %11, !llvm.loop !8

36:                                               ; preds = %11
  %37 = mul i32 %15, 1013904226
  %38 = lshr i32 %16, 31
  %39 = mul i32 %21, 465361024
  %40 = lshr i32 %22, 25
  %41 = mul i32 %27, 2006650880
  %42 = lshr i32 %28, 20
  %43 = mul i32 %33, -423362560
  %44 = lshr i32 %34, 14
  %45 = or disjoint i32 %38, %37
  %46 = add i32 %45, %39
  %47 = add i32 %46, %40
  %48 = add i32 %47, %41
  %49 = add i32 %48, %42
  %50 = add i32 %49, %43
  %51 = add i32 %50, %44
  br label %54

52:                                               ; preds = %3
  %53 = add i32 %2, 374761393
  br label %54

54:                                               ; preds = %52, %36
  %.082.i = phi i32 [ %51, %36 ], [ %53, %52 ]
  %.1.i = phi ptr [ %35, %36 ], [ %0, %52 ]
  %55 = trunc i64 %1 to i32
  %56 = add i32 %.082.i, %55
  %57 = getelementptr inbounds nuw i8, ptr %.1.i, i64 4
  %.not87.i15 = icmp ugt ptr %57, %4
  br i1 %.not87.i15, label %.preheader, label %.lr.ph

.preheader:                                       ; preds = %.lr.ph, %54
  %.183.i.lcssa = phi i32 [ %56, %54 ], [ %64, %.lr.ph ]
  %.2.i.lcssa = phi ptr [ %.1.i, %54 ], [ %59, %.lr.ph ]
  %58 = icmp ult ptr %.2.i.lcssa, %4
  br i1 %58, label %.lr.ph21, label %_ZN11OpenImageIO6v3_1_06xxhashL18XXH32_endian_alignEPKvmjNS1_13XXH_endianessENS1_13XXH_alignmentE.exit

.lr.ph:                                           ; preds = %54, %.lr.ph
  %59 = phi ptr [ %65, %.lr.ph ], [ %57, %54 ]
  %.2.i17 = phi ptr [ %59, %.lr.ph ], [ %.1.i, %54 ]
  %.183.i16 = phi i32 [ %64, %.lr.ph ], [ %56, %54 ]
  %60 = load i32, ptr %.2.i17, align 4, !tbaa !3
  %61 = mul i32 %60, -1028477379
  %62 = add i32 %61, %.183.i16
  %63 = tail call i32 @llvm.fshl.i32(i32 %62, i32 %62, i32 17)
  %64 = mul i32 %63, 668265263
  %65 = getelementptr inbounds nuw i8, ptr %59, i64 4
  %.not87.i = icmp ugt ptr %65, %4
  br i1 %.not87.i, label %.preheader, label %.lr.ph, !llvm.loop !10

.lr.ph21:                                         ; preds = %.preheader, %.lr.ph21
  %.3.i20 = phi ptr [ %72, %.lr.ph21 ], [ %.2.i.lcssa, %.preheader ]
  %.284.i19 = phi i32 [ %71, %.lr.ph21 ], [ %.183.i.lcssa, %.preheader ]
  %66 = load i8, ptr %.3.i20, align 1, !tbaa !11
  %67 = zext i8 %66 to i32
  %68 = mul i32 %67, 374761393
  %69 = add i32 %68, %.284.i19
  %70 = tail call i32 @llvm.fshl.i32(i32 %69, i32 %69, i32 11)
  %71 = mul i32 %70, -1640531535
  %72 = getelementptr inbounds nuw i8, ptr %.3.i20, i64 1
  %73 = icmp ult ptr %72, %4
  br i1 %73, label %.lr.ph21, label %_ZN11OpenImageIO6v3_1_06xxhashL18XXH32_endian_alignEPKvmjNS1_13XXH_endianessENS1_13XXH_alignmentE.exit, !llvm.loop !12

_ZN11OpenImageIO6v3_1_06xxhashL18XXH32_endian_alignEPKvmjNS1_13XXH_endianessENS1_13XXH_alignmentE.exit: ; preds = %.lr.ph21, %.preheader
  %.284.i.lcssa = phi i32 [ %.183.i.lcssa, %.preheader ], [ %71, %.lr.ph21 ]
  %74 = lshr i32 %.284.i.lcssa, 15
  %75 = xor i32 %74, %.284.i.lcssa
  %76 = mul i32 %75, -2048144777
  %77 = lshr i32 %76, 13
  %78 = xor i32 %77, %76
  %79 = mul i32 %78, -1028477379
  %80 = lshr i32 %79, 16
  %81 = xor i32 %80, %79
  ret i32 %81
}